target datalayout = "e-m:e-p270:32:32-p271:32:32-p272:64:64-i64:64-i128:128-f80:128-n8:16:32:64-S128"
target triple = "x86_64-unknown-linux-gnu"

%struct.NetClientInfo = type { i32, i64, ptr, ptr, ptr, ptr, ptr, ptr, ptr, ptr, ptr, ptr, ptr, ptr, ptr, ptr, ptr, ptr, ptr, ptr, ptr, ptr, ptr, ptr, ptr, ptr, ptr }
%struct.NetClientState = type { ptr, i32, %union.anon, ptr, ptr, ptr, ptr, [256 x i8], i8, ptr, i32, i8, i32, i32, i8, i8, i8, %union.anon.0 }
%union.anon = type { %struct.QTailQLink }
%struct.QTailQLink = type { ptr, ptr }
%union.anon.0 = type { %struct.QTailQLink }
%struct.NetVhostUserState = type { %struct.NetClientState, %struct.CharBackend, ptr, ptr, i32, i64, i8 }
%struct.CharBackend = type { ptr, ptr, ptr, ptr, ptr, ptr, i32, i32 }

@.str = private unnamed_addr constant [47 x i8] c"nc->info->type == NET_CLIENT_DRIVER_VHOST_USER\00", align 1
@.str.1 = private unnamed_addr constant [25 x i8] c"../qemu/net/vhost-user.c\00", align 1
@__PRETTY_FUNCTION__.vhost_user_get_vhost_net = private unnamed_addr constant [61 x i8] c"struct vhost_net *vhost_user_get_vhost_net(NetClientState *)\00", align 1

; Function Attrs: nounwind sspstrong uwtable
define dso_local ptr @vhost_user_get_vhost_net(ptr noundef %nc) #0 {
entry:
  %nc.addr = alloca ptr, align 8
  %s = alloca ptr, align 8
  %tmp = alloca ptr, align 8
  %__mptr = alloca ptr, align 8
  %tmp1 = alloca ptr, align 8
  store ptr %nc, ptr %nc.addr, align 8
  %0 = load ptr, ptr %nc.addr, align 8
  store ptr %0, ptr %__mptr, align 8
  %1 = load ptr, ptr %__mptr, align 8
  %add.ptr = getelementptr i8, ptr %1, i64 0
  store ptr %add.ptr, ptr %tmp1, align 8
  %2 = load ptr, ptr %tmp1, align 8
  store ptr %2, ptr %tmp, align 8
  %3 = load ptr, ptr %tmp, align 8
  store ptr %3, ptr %s, align 8
  %4 = load ptr, ptr %nc.addr, align 8
  %info = getelementptr inbounds %struct.NetClientState, ptr %4, i32 0, i32 0
  %5 = load ptr, ptr %info, align 8
  %type = getelementptr inbounds %struct.NetClientInfo, ptr %5, i32 0, i32 0
  %6 = load i32, ptr %type, align 8
  %cmp = icmp eq i32 %6, 12
  br i1 %cmp, label %if.then, label %if.else

if.then:                                          ; preds = %entry
  br label %if.end

if.else:                                          ; preds = %entry
  call void @__assert_fail(ptr noundef @.str, ptr noundef @.str.1, i32 noundef 37, ptr noundef @__PRETTY_FUNCTION__.vhost_user_get_vhost_net) #6
  unreachable

if.end:                                           ; preds = %if.then
  %7 = load ptr, ptr %s, align 8
  %vhost_net = getelementptr inbounds %struct.NetVhostUserState, ptr %7, i32 0, i32 3
  %8 = load ptr, ptr %vhost_net, align 8
  ret ptr %8
}